target datalayout = "e-m:e-p270:32:32-p271:32:32-p272:64:64-i64:64-i128:128-f80:128-n8:16:32:64-S128"
target triple = "x86_64-pc-linux-gnu"

%struct.lxb_encoding_encode_t = type { ptr, ptr, i64, i64, ptr, i64, i32 }

; Function Attrs: nounwind uwtable
define internal void @lxb_encoding_encode_utf_16_write(ptr noundef %0, i1 noundef zeroext %1, i32 noundef %2) #0 {
  %4 = alloca ptr, align 8
  %5 = alloca i8, align 1
  %6 = alloca i32, align 4
  store ptr %0, ptr %4, align 8
  %7 = zext i1 %1 to i8
  store i8 %7, ptr %5, align 1
  store i32 %2, ptr %6, align 4
  %8 = load i8, ptr %5, align 1
  %9 = trunc i8 %8 to i1
  br i1 %9, label %10, label %33

10:                                               ; preds = %3
  %11 = load i32, ptr %6, align 4
  %12 = lshr i32 %11, 8
  %13 = trunc i32 %12 to i8
  %14 = load ptr, ptr %4, align 8
  %15 = getelementptr inbounds %struct.lxb_encoding_encode_t, ptr %14, i32 0, i32 1
  %16 = load ptr, ptr %15, align 8
  %17 = load ptr, ptr %4, align 8
  %18 = getelementptr inbounds %struct.lxb_encoding_encode_t, ptr %17, i32 0, i32 3
  %19 = load i64, ptr %18, align 8
  %20 = add i64 %19, 1
  store i64 %20, ptr %18, align 8
  %21 = getelementptr inbounds i8, ptr %16, i64 %19
  store i8 %13, ptr %21, align 1
  %22 = load i32, ptr %6, align 4
  %23 = and i32 %22, 255
  %24 = trunc i32 %23 to i8
  %25 = load ptr, ptr %4, align 8
  %26 = getelementptr inbounds %struct.lxb_encoding_encode_t, ptr %25, i32 0, i32 1
  %27 = load ptr, ptr %26, align 8
  %28 = load ptr, ptr %4, align 8
  %29 = getelementptr inbounds %struct.lxb_encoding_encode_t, ptr %28, i32 0, i32 3
  %30 = load i64, ptr %29, align 8
  %31 = add i64 %30, 1
  store i64 %31, ptr %29, align 8
  %32 = getelementptr inbounds i8, ptr %27, i64 %30
  store i8 %24, ptr %32, align 1
  br label %56

33:                                               ; preds = %3
  %34 = load i32, ptr %6, align 4
  %35 = and i32 %34, 255
  %36 = trunc i32 %35 to i8
  %37 = load ptr, ptr %4, align 8
  %38 = getelementptr inbounds %struct.lxb_encoding_encode_t, ptr %37, i32 0, i32 1
  %39 = load ptr, ptr %38, align 8
  %40 = load ptr, ptr %4, align 8
  %41 = getelementptr inbounds %struct.lxb_encoding_encode_t, ptr %40, i32 0, i32 3
  %42 = load i64, ptr %41, align 8
  %43 = add i64 %42, 1
  store i64 %43, ptr %41, align 8
  %44 = getelementptr inbounds i8, ptr %39, i64 %42
  store i8 %36, ptr %44, align 1
  %45 = load i32, ptr %6, align 4
  %46 = lshr i32 %45, 8
  %47 = trunc i32 %46 to i8
  %48 = load ptr, ptr %4, align 8
  %49 = getelementptr inbounds %struct.lxb_encoding_encode_t, ptr %48, i32 0, i32 1
  %50 = load ptr, ptr %49, align 8
  %51 = load ptr, ptr %4, align 8
  %52 = getelementptr inbounds %struct.lxb_encoding_encode_t, ptr %51, i32 0, i32 3
  %53 = load i64, ptr %52, align 8
  %54 = add i64 %53, 1
  store i64 %54, ptr %52, align 8
  %55 = getelementptr inbounds i8, ptr %50, i64 %53
  store i8 %47, ptr %55, align 1
  br label %56

56:                                               ; preds = %33, %10
  ret void
}

; Function Attrs: nounwind uwtable
define internal signext i8 @lxb_encoding_encode_utf_16(ptr noundef %0, i1 noundef zeroext %1, ptr noundef %2, ptr noundef %3) #0 {
  %5 = alloca i8, align 1
  %6 = alloca ptr, align 8
  %7 = alloca i8, align 1
  %8 = alloca ptr, align 8
  %9 = alloca ptr, align 8
  %10 = alloca i32, align 4
  store ptr %0, ptr %6, align 8
  %11 = zext i1 %1 to i8
  store i8 %11, ptr %7, align 1
  store ptr %2, ptr %8, align 8
  store ptr %3, ptr %9, align 8
  br label %12

12:                                               ; preds = %63, %4
  %13 = load ptr, ptr %8, align 8
  %14 = load ptr, ptr %13, align 8
  %15 = load ptr, ptr %9, align 8
  %16 = icmp ult ptr %14, %15
  br i1 %16, label %17, label %67

17:                                               ; preds = %12
  %18 = load ptr, ptr %8, align 8
  %19 = load ptr, ptr %18, align 8
  %20 = load i32, ptr %19, align 4
  store i32 %20, ptr %10, align 4
  %21 = load i32, ptr %10, align 4
  %22 = icmp ult i32 %21, 65536
  br i1 %22, label %23, label %38

23:                                               ; preds = %17
  %24 = load ptr, ptr %6, align 8
  %25 = getelementptr inbounds %struct.lxb_encoding_encode_t, ptr %24, i32 0, i32 3
  %26 = load i64, ptr %25, align 8
  %27 = add i64 %26, 2
  %28 = load ptr, ptr %6, align 8
  %29 = getelementptr inbounds %struct.lxb_encoding_encode_t, ptr %28, i32 0, i32 2
  %30 = load i64, ptr %29, align 8
  %31 = icmp ugt i64 %27, %30
  br i1 %31, label %32, label %33

32:                                               ; preds = %23
  store i8 15, ptr %5, align 1
  br label %68

33:                                               ; preds = %23
  %34 = load ptr, ptr %6, align 8
  %35 = load i8, ptr %7, align 1
  %36 = trunc i8 %35 to i1
  %37 = load i32, ptr %10, align 4
  call void @lxb_encoding_encode_utf_16_write(ptr noundef %34, i1 noundef zeroext %36, i32 noundef %37)
  br label %63

38:                                               ; preds = %17
  %39 = load ptr, ptr %6, align 8
  %40 = getelementptr inbounds %struct.lxb_encoding_encode_t, ptr %39, i32 0, i32 3
  %41 = load i64, ptr %40, align 8
  %42 = add i64 %41, 4
  %43 = load ptr, ptr %6, align 8
  %44 = getelementptr inbounds %struct.lxb_encoding_encode_t, ptr %43, i32 0, i32 2
  %45 = load i64, ptr %44, align 8
  %46 = icmp ugt i64 %42, %45
  br i1 %46, label %47, label %48

47:                                               ; preds = %38
  store i8 15, ptr %5, align 1
  br label %68

48:                                               ; preds = %38
  %49 = load i32, ptr %10, align 4
  %50 = sub i32 %49, 65536
  store i32 %50, ptr %10, align 4
  %51 = load ptr, ptr %6, align 8
  %52 = load i8, ptr %7, align 1
  %53 = trunc i8 %52 to i1
  %54 = load i32, ptr %10, align 4
  %55 = lshr i32 %54, 10
  %56 = or i32 55296, %55
  call void @lxb_encoding_encode_utf_16_write(ptr noundef %51, i1 noundef zeroext %53, i32 noundef %56)
  %57 = load ptr, ptr %6, align 8
  %58 = load i8, ptr %7, align 1
  %59 = trunc i8 %58 to i1
  %60 = load i32, ptr %10, align 4
  %61 = and i32 %60, 1023
  %62 = or i32 56320, %61
  call void @lxb_encoding_encode_utf_16_write(ptr noundef %57, i1 noundef zeroext %59, i32 noundef %62)
  br label %63

63:                                               ; preds = %48, %33
  %64 = load ptr, ptr %8, align 8
  %65 = load ptr, ptr %64, align 8
  %66 = getelementptr inbounds i32, ptr %65, i32 1
  store ptr %66, ptr %64, align 8
  br label %12

67:                                               ; preds = %12
  store i8 0, ptr %5, align 1
  br label %68

68:                                               ; preds = %67, %47, %32
  %69 = load i8, ptr %5, align 1
  ret i8 %69
}

; Function Attrs: nounwind uwtable
define hidden i32 @lxb_encoding_encode_utf_16be(ptr noundef %0, ptr noundef %1, ptr noundef %2) #0 {
  %4 = alloca ptr, align 8
  %5 = alloca ptr, align 8
  %6 = alloca ptr, align 8
  store ptr %0, ptr %4, align 8
  store ptr %1, ptr %5, align 8
  store ptr %2, ptr %6, align 8
  %7 = load ptr, ptr %4, align 8
  %8 = load ptr, ptr %5, align 8
  %9 = load ptr, ptr %6, align 8
  %10 = call signext i8 @lxb_encoding_encode_utf_16(ptr noundef %7, i1 noundef zeroext true, ptr noundef %8, ptr noundef %9)
  %11 = sext i8 %10 to i32
  ret i32 %11
}