; Function Attrs: nofree norecurse nosync nounwind memory(readwrite, inaccessiblemem: none) uwtable
define hidden noundef i32 @lxb_encoding_encode_utf_16be(ptr nocapture noundef %0, ptr nocapture noundef %1, ptr noundef readnone %2) local_unnamed_addr #0 {
  %4 = getelementptr inbounds i8, ptr %0, i64 24
  %5 = load ptr, ptr %1, align 8
  %6 = icmp ult ptr %5, %2
  br i1 %6, label %.lr.ph.i, label %lxb_encoding_encode_utf_16.exit

.lr.ph.i:                                         ; preds = %3
  %7 = getelementptr inbounds i8, ptr %0, i64 16
  %8 = getelementptr inbounds i8, ptr %0, i64 8
  br label %.lr.ph.split.us.i

.lr.ph.split.us.i:                                ; preds = %lxb_encoding_encode_utf_16_write.exit.us.i, %.lr.ph.i
  %9 = phi ptr [ %59, %lxb_encoding_encode_utf_16_write.exit.us.i ], [ %5, %.lr.ph.i ]
  %10 = load i32, ptr %9, align 4
  %11 = icmp ult i32 %10, 65536
  %12 = load i64, ptr %4, align 8
  %13 = load i64, ptr %7, align 8
  br i1 %11, label %44, label %14

14:                                               ; preds = %.lr.ph.split.us.i
  %15 = add i64 %12, 4
  %16 = icmp ugt i64 %15, %13
  br i1 %16, label %lxb_encoding_encode_utf_16.exit, label %17

17:                                               ; preds = %14
  %18 = add i32 %10, -65536
  %19 = lshr i32 %18, 10
  %20 = lshr i32 %18, 18
  %21 = trunc i32 %20 to i8
  %22 = or i8 %21, -40
  %23 = load ptr, ptr %8, align 8
  %24 = add i64 %12, 1
  store i64 %24, ptr %4, align 8
  %25 = getelementptr inbounds i8, ptr %23, i64 %12
  store i8 %22, ptr %25, align 1
  %26 = trunc i32 %19 to i8
  %27 = load ptr, ptr %8, align 8
  %28 = load i64, ptr %4, align 8
  %29 = add i64 %28, 1
  store i64 %29, ptr %4, align 8
  %30 = getelementptr inbounds i8, ptr %27, i64 %28
  store i8 %26, ptr %30, align 1
  %31 = lshr i32 %10, 8
  %32 = trunc i32 %31 to i8
  %33 = and i8 %32, 3
  %34 = or disjoint i8 %33, -36
  %35 = load ptr, ptr %8, align 8
  %36 = load i64, ptr %4, align 8
  %37 = add i64 %36, 1
  store i64 %37, ptr %4, align 8
  %38 = getelementptr inbounds i8, ptr %35, i64 %36
  store i8 %34, ptr %38, align 1
  %39 = trunc i32 %10 to i8
  %40 = load ptr, ptr %8, align 8
  %41 = load i64, ptr %4, align 8
  %42 = add i64 %41, 1
  store i64 %42, ptr %4, align 8
  %43 = getelementptr inbounds i8, ptr %40, i64 %41
  store i8 %39, ptr %43, align 1
  br label %lxb_encoding_encode_utf_16_write.exit.us.i

44:                                               ; preds = %.lr.ph.split.us.i
  %45 = add i64 %12, 2
  %46 = icmp ugt i64 %45, %13
  br i1 %46, label %lxb_encoding_encode_utf_16.exit, label %47

47:                                               ; preds = %44
  %48 = lshr i32 %10, 8
  %49 = trunc i32 %48 to i8
  %50 = load ptr, ptr %8, align 8
  %51 = add i64 %12, 1
  store i64 %51, ptr %4, align 8
  %52 = getelementptr inbounds i8, ptr %50, i64 %12
  store i8 %49, ptr %52, align 1
  %53 = trunc i32 %10 to i8
  %54 = load ptr, ptr %8, align 8
  %55 = load i64, ptr %4, align 8
  %56 = add i64 %55, 1
  store i64 %56, ptr %4, align 8
  %57 = getelementptr inbounds i8, ptr %54, i64 %55
  store i8 %53, ptr %57, align 1
  br label %lxb_encoding_encode_utf_16_write.exit.us.i

lxb_encoding_encode_utf_16_write.exit.us.i:       ; preds = %47, %17
  %58 = load ptr, ptr %1, align 8
  %59 = getelementptr inbounds i8, ptr %58, i64 4
  store ptr %59, ptr %1, align 8
  %60 = icmp ult ptr %59, %2
  br i1 %60, label %.lr.ph.split.us.i, label %lxb_encoding_encode_utf_16.exit

lxb_encoding_encode_utf_16.exit:                  ; preds = %14, %44, %lxb_encoding_encode_utf_16_write.exit.us.i, %3
  %.0.i = phi i32 [ 0, %3 ], [ 15, %44 ], [ 15, %14 ], [ 0, %lxb_encoding_encode_utf_16_write.exit.us.i ]
  ret i32 %.0.i
}